; Function Attrs: mustprogress uwtable
define internal fastcc void @_ZN12_GLOBAL__N_112CxxrtlWorker16dump_sigspec_rhsERKN5Yosys5RTLIL7SigSpecEb(ptr noundef nonnull align 8 dereferenceable(1280) %0, ptr noundef nonnull align 8 dereferenceable(56) %1, i1 noundef zeroext %2) unnamed_addr #5 align 2 {
  %4 = tail call fastcc noundef zeroext i1 @_ZN12_GLOBAL__N_112CxxrtlWorker12dump_sigspecERKN5Yosys5RTLIL7SigSpecEbb(ptr noundef nonnull align 8 dereferenceable(1280) %0, ptr noundef nonnull align 8 dereferenceable(56) %1, i1 noundef zeroext false, i1 noundef zeroext %2)
  br i1 %4, label %5, label %8

5:                                                ; preds = %3
  %6 = getelementptr inbounds nuw i8, ptr %0, i64 136
  %7 = tail call noundef nonnull align 8 dereferenceable(8) ptr @_ZSt16__ostream_insertIcSt11char_traitsIcEERSt13basic_ostreamIT_T0_ES6_PKS3_l(ptr noundef nonnull align 8 dereferenceable(8) %6, ptr noundef nonnull @.str.460, i64 noundef 6)
  br label %8

8:                                                ; preds = %5, %3
  ret void
}